; Function Attrs: nounwind uwtable
define dso_local ptr @PageGetTempPageCopySpecial(ptr noundef readonly captures(none) %0) local_unnamed_addr #3 {
  %2 = getelementptr i8, ptr %0, i64 18
  %.val = load i16, ptr %2, align 2
  %3 = and i16 %.val, -256
  %4 = zext i16 %3 to i64
  %5 = tail call ptr @palloc(i64 noundef %4) #12
  %6 = getelementptr i8, ptr %0, i64 16
  %.val12 = load i16, ptr %6, align 4
  %.val13 = load i16, ptr %2, align 2
  %7 = ptrtoint ptr %5 to i64
  %8 = and i64 %7, 7
  %9 = icmp eq i64 %8, 0
  %10 = icmp ult i16 %3, 1025
  %or.cond = and i1 %10, %9
  br i1 %or.cond, label %11, label %PageInit.exit.sink.split

11:                                               ; preds = %1
  %.not.i = icmp eq i16 %3, 0
  br i1 %.not.i, label %PageInit.exit, label %.lr.ph.preheader.i

.lr.ph.preheader.i:                               ; preds = %11
  %12 = add i64 %4, %7
  %13 = add i64 %7, 8
  %umax.i = tail call i64 @llvm.umax.i64(i64 %12, i64 %13)
  %14 = xor i64 %7, -1
  %15 = add i64 %umax.i, %14
  %16 = and i64 %15, -8
  %17 = add i64 %16, 8
  br label %PageInit.exit.sink.split

PageInit.exit.sink.split:                         ; preds = %1, %.lr.ph.preheader.i
  %.sink = phi i64 [ %17, %.lr.ph.preheader.i ], [ %4, %1 ]
  tail call void @llvm.memset.p0.i64(ptr align 1 %5, i8 0, i64 %.sink, i1 false)
  br label %PageInit.exit

PageInit.exit:                                    ; preds = %PageInit.exit.sink.split, %11
  %18 = and i16 %.val13, -256
  %reass.sub = sub i16 %18, %.val12
  %19 = add i16 %reass.sub, 7
  %20 = and i16 %19, -8
  %21 = getelementptr inbounds nuw i8, ptr %5, i64 10
  store i16 0, ptr %21, align 2
  %22 = getelementptr inbounds nuw i8, ptr %5, i64 12
  store i16 24, ptr %22, align 4
  %23 = sub i16 %3, %20
  %24 = getelementptr inbounds nuw i8, ptr %5, i64 14
  store i16 %23, ptr %24, align 2
  %25 = getelementptr inbounds nuw i8, ptr %5, i64 16
  store i16 %23, ptr %25, align 4
  %26 = or disjoint i16 %3, 4
  %27 = getelementptr inbounds nuw i8, ptr %5, i64 18
  store i16 %26, ptr %27, align 2
  %28 = zext i16 %23 to i64
  %29 = getelementptr inbounds nuw i8, ptr %5, i64 %28
  %30 = load i16, ptr %6, align 4
  %31 = zext i16 %30 to i64
  %32 = getelementptr inbounds nuw i8, ptr %0, i64 %31
  %.val15 = load i16, ptr %2, align 2
  %33 = and i16 %.val15, -256
  %34 = sub i16 %33, %30
  %35 = zext i16 %34 to i64
  tail call void @llvm.memcpy.p0.p0.i64(ptr align 1 %29, ptr align 1 %32, i64 %35, i1 false)
  ret ptr %5
}